target datalayout = "e-m:e-p270:32:32-p271:32:32-p272:64:64-i64:64-i128:128-f80:128-n8:16:32:64-S128"
target triple = "x86_64-pc-linux-gnu"

%struct.JsonLexContext = type { ptr, i64, i32, ptr, ptr, ptr, i8, i32, i32, i32, i32, ptr, ptr, ptr, i8, ptr, ptr }

@failed_oom = internal global %struct.JsonLexContext zeroinitializer, align 8

; Function Attrs: nounwind uwtable
define ptr @makeJsonLexContextCstringLen(ptr noundef %0, ptr noundef %1, i64 noundef %2, i32 noundef %3, i1 noundef zeroext %4) #1 {
  %6 = alloca ptr, align 8
  %7 = alloca ptr, align 8
  %8 = alloca ptr, align 8
  %9 = alloca i64, align 8
  %10 = alloca i32, align 4
  %11 = alloca i8, align 1
  store ptr %0, ptr %7, align 8
  store ptr %1, ptr %8, align 8
  store i64 %2, ptr %9, align 8
  store i32 %3, ptr %10, align 4
  %12 = zext i1 %4 to i8
  store i8 %12, ptr %11, align 1
  %13 = load ptr, ptr %7, align 8
  %14 = icmp eq ptr %13, null
  br i1 %14, label %15, label %25

15:                                               ; preds = %5
  %16 = call noalias ptr @calloc(i64 noundef 1, i64 noundef 120) #16
  store ptr %16, ptr %7, align 8
  %17 = load ptr, ptr %7, align 8
  %18 = icmp ne ptr %17, null
  br i1 %18, label %20, label %19

19:                                               ; preds = %15
  store ptr @failed_oom, ptr %6, align 8
  br label %62

20:                                               ; preds = %15
  %21 = load ptr, ptr %7, align 8
  %22 = getelementptr inbounds nuw %struct.JsonLexContext, ptr %21, i32 0, i32 9
  %23 = load i32, ptr %22, align 4
  %24 = or i32 %23, 1
  store i32 %24, ptr %22, align 4
  br label %27

25:                                               ; preds = %5
  %26 = load ptr, ptr %7, align 8
  call void @llvm.memset.p0.i64(ptr align 8 %26, i8 0, i64 120, i1 false)
  br label %27

27:                                               ; preds = %25, %20
  %28 = load ptr, ptr %7, align 8
  %29 = getelementptr inbounds nuw %struct.JsonLexContext, ptr %28, i32 0, i32 16
  store ptr null, ptr %29, align 8
  %30 = load ptr, ptr %8, align 8
  %31 = load ptr, ptr %7, align 8
  %32 = getelementptr inbounds nuw %struct.JsonLexContext, ptr %31, i32 0, i32 11
  store ptr %30, ptr %32, align 8
  %33 = load ptr, ptr %7, align 8
  %34 = getelementptr inbounds nuw %struct.JsonLexContext, ptr %33, i32 0, i32 4
  store ptr %30, ptr %34, align 8
  %35 = load ptr, ptr %7, align 8
  %36 = getelementptr inbounds nuw %struct.JsonLexContext, ptr %35, i32 0, i32 0
  store ptr %30, ptr %36, align 8
  %37 = load ptr, ptr %7, align 8
  %38 = getelementptr inbounds nuw %struct.JsonLexContext, ptr %37, i32 0, i32 10
  store i32 1, ptr %38, align 8
  %39 = load i64, ptr %9, align 8
  %40 = load ptr, ptr %7, align 8
  %41 = getelementptr inbounds nuw %struct.JsonLexContext, ptr %40, i32 0, i32 1
  store i64 %39, ptr %41, align 8
  %42 = load i32, ptr %10, align 4
  %43 = load ptr, ptr %7, align 8
  %44 = getelementptr inbounds nuw %struct.JsonLexContext, ptr %43, i32 0, i32 2
  store i32 %42, ptr %44, align 8
  %45 = load i8, ptr %11, align 1, !range !3, !noundef !4
  %46 = trunc i8 %45 to i1
  %47 = load ptr, ptr %7, align 8
  %48 = getelementptr inbounds nuw %struct.JsonLexContext, ptr %47, i32 0, i32 14
  %49 = zext i1 %46 to i8
  store i8 %49, ptr %48, align 8
  %50 = load i8, ptr %11, align 1, !range !3, !noundef !4
  %51 = trunc i8 %50 to i1
  br i1 %51, label %52, label %60

52:                                               ; preds = %27
  %53 = call ptr @createPQExpBuffer()
  %54 = load ptr, ptr %7, align 8
  %55 = getelementptr inbounds nuw %struct.JsonLexContext, ptr %54, i32 0, i32 15
  store ptr %53, ptr %55, align 8
  %56 = load ptr, ptr %7, align 8
  %57 = getelementptr inbounds nuw %struct.JsonLexContext, ptr %56, i32 0, i32 9
  %58 = load i32, ptr %57, align 4
  %59 = or i32 %58, 2
  store i32 %59, ptr %57, align 4
  br label %60

60:                                               ; preds = %52, %27
  %61 = load ptr, ptr %7, align 8
  store ptr %61, ptr %6, align 8
  br label %62

62:                                               ; preds = %60, %19
  %63 = load ptr, ptr %6, align 8
  ret ptr %63
}