; Function Attrs: nounwind uwtable
define noundef ptr @makeJsonLexContextCstringLen(ptr noundef captures(address_is_null, ret: address, provenance) %0, ptr noundef %1, i64 noundef %2, i32 noundef %3, i1 noundef zeroext %4) local_unnamed_addr #1 {
  %6 = zext i1 %4 to i8
  %7 = icmp eq ptr %0, null
  br i1 %7, label %8, label %12

8:                                                ; preds = %5
  %9 = tail call noalias dereferenceable_or_null(120) ptr @calloc(i64 noundef 1, i64 noundef 120) #17
  %.not = icmp eq ptr %9, null
  br i1 %.not, label %27, label %10

10:                                               ; preds = %8
  %11 = getelementptr inbounds nuw i8, ptr %9, i64 60
  store i32 1, ptr %11, align 4
  br label %13

12:                                               ; preds = %5
  tail call void @llvm.memset.p0.i64(ptr noundef nonnull align 8 dereferenceable(120) %0, i8 0, i64 120, i1 false)
  br label %13

13:                                               ; preds = %12, %10
  %.020 = phi ptr [ %9, %10 ], [ %0, %12 ]
  %14 = getelementptr inbounds nuw i8, ptr %.020, i64 112
  store ptr null, ptr %14, align 8
  %15 = getelementptr inbounds nuw i8, ptr %.020, i64 72
  store ptr %1, ptr %15, align 8
  %16 = getelementptr inbounds nuw i8, ptr %.020, i64 32
  store ptr %1, ptr %16, align 8
  store ptr %1, ptr %.020, align 8
  %17 = getelementptr inbounds nuw i8, ptr %.020, i64 64
  store i32 1, ptr %17, align 8
  %18 = getelementptr inbounds nuw i8, ptr %.020, i64 8
  store i64 %2, ptr %18, align 8
  %19 = getelementptr inbounds nuw i8, ptr %.020, i64 16
  store i32 %3, ptr %19, align 8
  %20 = getelementptr inbounds nuw i8, ptr %.020, i64 96
  store i8 %6, ptr %20, align 8
  br i1 %4, label %21, label %27

21:                                               ; preds = %13
  %22 = tail call ptr @createPQExpBuffer() #16
  %23 = getelementptr inbounds nuw i8, ptr %.020, i64 104
  store ptr %22, ptr %23, align 8
  %24 = getelementptr inbounds nuw i8, ptr %.020, i64 60
  %25 = load i32, ptr %24, align 4
  %26 = or i32 %25, 2
  store i32 %26, ptr %24, align 4
  br label %27

27:                                               ; preds = %13, %21, %8
  %.0 = phi ptr [ @failed_oom, %8 ], [ %.020, %21 ], [ %.020, %13 ]
  ret ptr %.0
}